; ModuleID = '21/2102.c'
source_filename = "21/2102.c"
target datalayout = "e-m:e-p270:32:32-p271:32:32-p272:64:64-i64:64-f80:128-n8:16:32:64-S128"
target triple = "x86_64-pc-linux-gnu"

@.str = private unnamed_addr constant [3 x i8] c"%d\00", align 1
@.str.1 = private unnamed_addr constant [3 x i8] c"%f\00", align 1
@.str.2 = private unnamed_addr constant [5 x i8] c"%.0f\00", align 1
@.str.3 = private unnamed_addr constant [6 x i8] c",%.0f\00", align 1

; Function Attrs: noinline nounwind uwtable
define dso_local float @abss(float %0) #0 {
  %2 = alloca float, align 4
  %3 = alloca float, align 4
  store float %0, float* %3, align 4
  %4 = load float, float* %3, align 4
  %5 = fcmp olt float %4, 0.000000e+00
  br i1 %5, label %6, label %9

6:                                                ; preds = %1
  %7 = load float, float* %3, align 4
  %8 = fneg float %7
  store float %8, float* %2, align 4
  br label %11

9:                                                ; preds = %1
  %10 = load float, float* %3, align 4
  store float %10, float* %2, align 4
  br label %11

11:                                               ; preds = %9, %6
  %12 = load float, float* %2, align 4
  ret float %12
}

; Function Attrs: noinline nounwind uwtable
define dso_local void @main() #0 {
  %1 = alloca i32, align 4
  %2 = alloca i32, align 4
  %3 = alloca i32, align 4
  %4 = alloca i32, align 4
  %5 = alloca float, align 4
  %6 = alloca float, align 4
  %7 = alloca [301 x float], align 16
  %8 = alloca [300 x float], align 16
  %9 = alloca float, align 4
  store float 0.000000e+00, float* %5, align 4
  store float 0.000000e+00, float* %6, align 4
  %10 = call i32 (i8*, ...) @__isoc99_scanf(i8* getelementptr inbounds ([3 x i8], [3 x i8]* @.str, i64 0, i64 0), i32* %1)
  store i32 1, i32* %2, align 4
  br label %11

11:                                               ; preds = %26, %0
  %12 = load i32, i32* %2, align 4
  %13 = load i32, i32* %1, align 4
  %14 = icmp sle i32 %12, %13
  br i1 %14, label %15, label %29

15:                                               ; preds = %11
  %16 = load i32, i32* %2, align 4
  %17 = sext i32 %16 to i64
  %18 = getelementptr inbounds [301 x float], [301 x float]* %7, i64 0, i64 %17
  %19 = call i32 (i8*, ...) @__isoc99_scanf(i8* getelementptr inbounds ([3 x i8], [3 x i8]* @.str.1, i64 0, i64 0), float* %18)
  %20 = load i32, i32* %2, align 4
  %21 = sext i32 %20 to i64
  %22 = getelementptr inbounds [301 x float], [301 x float]* %7, i64 0, i64 %21
  %23 = load float, float* %22, align 4
  %24 = load float, float* %5, align 4
  %25 = fadd float %24, %23
  store float %25, float* %5, align 4
  br label %26

26:                                               ; preds = %15
  %27 = load i32, i32* %2, align 4
  %28 = add nsw i32 %27, 1
  store i32 %28, i32* %2, align 4
  br label %11

29:                                               ; preds = %11
  %30 = load i32, i32* %1, align 4
  %31 = sitofp i32 %30 to float
  %32 = load float, float* %5, align 4
  %33 = fdiv float %32, %31
  store float %33, float* %5, align 4
  store i32 1, i32* %2, align 4
  br label %34

34:                                               ; preds = %57, %29
  %35 = load i32, i32* %2, align 4
  %36 = load i32, i32* %1, align 4
  %37 = icmp sle i32 %35, %36
  br i1 %37, label %38, label %60

38:                                               ; preds = %34
  %39 = load i32, i32* %2, align 4
  %40 = sext i32 %39 to i64
  %41 = getelementptr inbounds [301 x float], [301 x float]* %7, i64 0, i64 %40
  %42 = load float, float* %41, align 4
  %43 = load float, float* %5, align 4
  %44 = fsub float %42, %43
  %45 = call float @abss(float %44)
  %46 = load float, float* %6, align 4
  %47 = fcmp ogt float %45, %46
  br i1 %47, label %48, label %56

48:                                               ; preds = %38
  %49 = load i32, i32* %2, align 4
  %50 = sext i32 %49 to i64
  %51 = getelementptr inbounds [301 x float], [301 x float]* %7, i64 0, i64 %50
  %52 = load float, float* %51, align 4
  %53 = load float, float* %5, align 4
  %54 = fsub float %52, %53
  %55 = call float @abss(float %54)
  store float %55, float* %6, align 4
  br label %56

56:                                               ; preds = %48, %38
  br label %57

57:                                               ; preds = %56
  %58 = load i32, i32* %2, align 4
  %59 = add nsw i32 %58, 1
  store i32 %59, i32* %2, align 4
  br label %34

60:                                               ; preds = %34
  store i32 1, i32* %2, align 4
  store i32 0, i32* %3, align 4
  br label %61

61:                                               ; preds = %86, %60
  %62 = load i32, i32* %2, align 4
  %63 = load i32, i32* %1, align 4
  %64 = icmp sle i32 %62, %63
  br i1 %64, label %65, label %89

65:                                               ; preds = %61
  %66 = load i32, i32* %2, align 4
  %67 = sext i32 %66 to i64
  %68 = getelementptr inbounds [301 x float], [301 x float]* %7, i64 0, i64 %67
  %69 = load float, float* %68, align 4
  %70 = load float, float* %5, align 4
  %71 = fsub float %69, %70
  %72 = call float @abss(float %71)
  %73 = load float, float* %6, align 4
  %74 = fcmp oeq float %72, %73
  br i1 %74, label %75, label %85

75:                                               ; preds = %65
  %76 = load i32, i32* %3, align 4
  %77 = add nsw i32 %76, 1
  store i32 %77, i32* %3, align 4
  %78 = load i32, i32* %2, align 4
  %79 = sext i32 %78 to i64
  %80 = getelementptr inbounds [301 x float], [301 x float]* %7, i64 0, i64 %79
  %81 = load float, float* %80, align 4
  %82 = load i32, i32* %3, align 4
  %83 = sext i32 %82 to i64
  %84 = getelementptr inbounds [300 x float], [300 x float]* %8, i64 0, i64 %83
  store float %81, float* %84, align 4
  br label %85

85:                                               ; preds = %75, %65
  br label %86

86:                                               ; preds = %85
  %87 = load i32, i32* %2, align 4
  %88 = add nsw i32 %87, 1
  store i32 %88, i32* %2, align 4
  br label %61

89:                                               ; preds = %61
  %90 = load i32, i32* %3, align 4
  store i32 %90, i32* %4, align 4
  store i32 1, i32* %2, align 4
  br label %91

91:                                               ; preds = %136, %89
  %92 = load i32, i32* %2, align 4
  %93 = load i32, i32* %4, align 4
  %94 = icmp slt i32 %92, %93
  br i1 %94, label %95, label %139

95:                                               ; preds = %91
  store i32 1, i32* %3, align 4
  br label %96

96:                                               ; preds = %132, %95
  %97 = load i32, i32* %3, align 4
  %98 = load i32, i32* %4, align 4
  %99 = load i32, i32* %2, align 4
  %100 = sub nsw i32 %98, %99
  %101 = icmp slt i32 %97, %100
  br i1 %101, label %102, label %135

102:                                              ; preds = %96
  %103 = load i32, i32* %3, align 4
  %104 = sext i32 %103 to i64
  %105 = getelementptr inbounds [300 x float], [300 x float]* %8, i64 0, i64 %104
  %106 = load float, float* %105, align 4
  %107 = load i32, i32* %3, align 4
  %108 = add nsw i32 %107, 1
  %109 = sext i32 %108 to i64
  %110 = getelementptr inbounds [300 x float], [300 x float]* %8, i64 0, i64 %109
  %111 = load float, float* %110, align 4
  %112 = fcmp ogt float %106, %111
  br i1 %112, label %113, label %131

113:                                              ; preds = %102
  %114 = load i32, i32* %3, align 4
  %115 = sext i32 %114 to i64
  %116 = getelementptr inbounds [300 x float], [300 x float]* %8, i64 0, i64 %115
  %117 = load float, float* %116, align 4
  store float %117, float* %9, align 4
  %118 = load i32, i32* %3, align 4
  %119 = add nsw i32 %118, 1
  %120 = sext i32 %119 to i64
  %121 = getelementptr inbounds [300 x float], [300 x float]* %8, i64 0, i64 %120
  %122 = load float, float* %121, align 4
  %123 = load i32, i32* %3, align 4
  %124 = sext i32 %123 to i64
  %125 = getelementptr inbounds [300 x float], [300 x float]* %8, i64 0, i64 %124
  store float %122, float* %125, align 4
  %126 = load float, float* %9, align 4
  %127 = load i32, i32* %3, align 4
  %128 = add nsw i32 %127, 1
  %129 = sext i32 %128 to i64
  %130 = getelementptr inbounds [300 x float], [300 x float]* %8, i64 0, i64 %129
  store float %126, float* %130, align 4
  br label %131

131:                                              ; preds = %113, %102
  br label %132

132:                                              ; preds = %131
  %133 = load i32, i32* %3, align 4
  %134 = add nsw i32 %133, 1
  store i32 %134, i32* %3, align 4
  br label %96

135:                                              ; preds = %96
  br label %136

136:                                              ; preds = %135
  %137 = load i32, i32* %2, align 4
  %138 = add nsw i32 %137, 1
  store i32 %138, i32* %2, align 4
  br label %91

139:                                              ; preds = %91
  store i32 1, i32* %2, align 4
  br label %140

140:                                              ; preds = %155, %139
  %141 = load i32, i32* %2, align 4
  %142 = load i32, i32* %4, align 4
  %143 = icmp sle i32 %141, %142
  br i1 %143, label %144, label %158

144:                                              ; preds = %140
  %145 = load i32, i32* %2, align 4
  %146 = icmp eq i32 %145, 1
  %147 = zext i1 %146 to i64
  %148 = select i1 %146, i8* getelementptr inbounds ([5 x i8], [5 x i8]* @.str.2, i64 0, i64 0), i8* getelementptr inbounds ([6 x i8], [6 x i8]* @.str.3, i64 0, i64 0)
  %149 = load i32, i32* %2, align 4
  %150 = sext i32 %149 to i64
  %151 = getelementptr inbounds [300 x float], [300 x float]* %8, i64 0, i64 %150
  %152 = load float, float* %151, align 4
  %153 = fpext float %152 to double
  %154 = call i32 (i8*, ...) @printf(i8* %148, double %153)
  br label %155

155:                                              ; preds = %144
  %156 = load i32, i32* %2, align 4
  %157 = add nsw i32 %156, 1
  store i32 %157, i32* %2, align 4
  br label %140

158:                                              ; preds = %140
  ret void
}

declare dso_local i32 @__isoc99_scanf(i8*, ...) #1

declare dso_local i32 @printf(i8*, ...) #1


!llvm.module.flags = !{!0}
!llvm.ident = !{!1}

!0 = !{i32 1, !"wchar_size", i32 4}
!1 = !{!"clang version 10.0.0-4ubuntu1 "}
